ccopy_reg
_reconstructor
p1
(cneat.chromosome
Chromosome
p2
c__builtin__
object
p3
NtRp4
(dp5
S'species_id'
p6
I1047
sS'_connection_genes'
p7
(dp8
(I5
I4
tp9
g1
(cneat.genome
ConnectionGene
p10
g3
NtRp11
(dp12
S'_ConnectionGene__weight'
p13
F1.974488905274681
sS'_ConnectionGene__in'
p14
I5
sS'_ConnectionGene__enabled'
p15
I01
sS'_ConnectionGene__out'
p16
I4
sS'_ConnectionGene__innov_number'
p17
I6
sbs(I5
I5
tp18
g1
(g10
g3
NtRp19
(dp20
g13
F15.616018951253809
sg14
I5
sg15
I00
sg16
I5
sg17
I9
sbs(I4
I5
tp21
g1
(g10
g3
NtRp22
(dp23
g13
F-49.824499531811362
sg14
I4
sg15
I01
sg16
I5
sg17
I14
sbs(I4
I4
tp24
g1
(g10
g3
NtRp25
(dp26
g13
F-3.0825634011674925
sg14
I4
sg15
I01
sg16
I4
sg17
I4
sbs(I1
I4
tp27
g1
(g10
g3
NtRp28
(dp29
g13
F-8.3074688055754766
sg14
I1
sg15
I01
sg16
I4
sg17
I1
sbs(I1
I5
tp30
g1
(g10
g3
NtRp31
(dp32
g13
F-26.527609277295188
sg14
I1
sg15
I01
sg16
I5
sg17
I5
sbs(I5
I6
tp33
g1
(g10
g3
NtRp34
(dp35
g13
F3.8209257013815359
sg14
I5
sg15
I01
sg16
I6
sg17
I12
sbs(I2
I5
tp36
g1
(g10
g3
NtRp37
(dp38
g13
F18.678618610436764
sg14
I2
sg15
I01
sg16
I5
sg17
I8
sbs(I3
I4
tp39
g1
(g10
g3
NtRp40
(dp41
g13
F28.509560267237681
sg14
I3
sg15
I01
sg16
I4
sg17
I3
sbs(I2
I4
tp42
g1
(g10
g3
NtRp43
(dp44
g13
F-36.355130148039102
sg14
I2
sg15
I01
sg16
I4
sg17
I2
sbs(I6
I5
tp45
g1
(g10
g3
NtRp46
(dp47
g13
F12.62408851174715
sg14
I6
sg15
I01
sg16
I5
sg17
I11
sbs(I3
I5
tp48
g1
(g10
g3
NtRp49
(dp50
g13
F-17.603796522575703
sg14
I3
sg15
I01
sg16
I5
sg17
I7
sbssS'_input_nodes'
p51
I3
sS'_output_nodes'
p52
I1
sS'_node_gene_type'
p53
cneat.genome
NodeGene
p54
sS'_conn_gene_type'
p55
g10
sS'fitness'
p56
I100000
sS'parent2_id'
p57
I34416
sS'score'
p58
I300
sS'_id'
p59
I34562
sS'parent1_id'
p60
I34412
sS'_node_genes'
p61
(lp62
g1
(g54
g3
NtRp63
(dp64
S'_bias'
p65
I0
sS'_type'
p66
S'INPUT'
p67
sg59
I1
sS'_response'
p68
F4.9242730000000003
sS'_activation_type'
p69
Nsbag1
(g54
g3
NtRp70
(dp71
g65
I0
sg66
g67
sg59
I2
sg68
F4.9242730000000003
sg69
Nsbag1
(g54
g3
NtRp72
(dp73
g65
I0
sg66
g67
sg59
I3
sg68
F4.9242730000000003
sg69
Nsbag1
(g54
g3
NtRp74
(dp75
g65
F0.45395635702132908
sg66
S'OUTPUT'
p76
sg59
I4
sg68
F0.62069510558964136
sg69
S'tanh'
p77
sbag1
(g54
g3
NtRp78
(dp79
g65
F6.2884232831684592
sg66
S'HIDDEN'
p80
sg59
I5
sg68
F1.0721044463935636
sg69
g77
sbag1
(g54
g3
NtRp81
(dp82
g65
I0
sg66
g80
sg59
I6
sg68
F4.9242730000000003
sg69
g77
sbasb.