ccopy_reg
_reconstructor
p1
(cneat.chromosome
Chromosome
p2
c__builtin__
object
p3
NtRp4
(dp5
S'species_id'
p6
I411
sS'_connection_genes'
p7
(dp8
(I4
I4
tp9
g1
(cneat.genome
ConnectionGene
p10
g3
NtRp11
(dp12
S'_ConnectionGene__weight'
p13
F-7.7756473129553925
sS'_ConnectionGene__in'
p14
I4
sS'_ConnectionGene__enabled'
p15
I01
sS'_ConnectionGene__out'
p16
I4
sS'_ConnectionGene__innov_number'
p17
I4
sbs(I3
I4
tp18
g1
(g10
g3
NtRp19
(dp20
g13
F37.15316566489463
sg14
I3
sg15
I01
sg16
I4
sg17
I3
sbs(I2
I4
tp21
g1
(g10
g3
NtRp22
(dp23
g13
F-38.80577960591912
sg14
I2
sg15
I01
sg16
I4
sg17
I2
sbs(I1
I4
tp24
g1
(g10
g3
NtRp25
(dp26
g13
F-2.9082283429487106
sg14
I1
sg15
I01
sg16
I4
sg17
I1
sbssS'_input_nodes'
p27
I3
sS'_output_nodes'
p28
I1
sS'_node_gene_type'
p29
cneat.genome
NodeGene
p30
sS'_conn_gene_type'
p31
g10
sS'fitness'
p32
I100000
sS'parent2_id'
p33
I12373
sS'score'
p34
I277
sS'_id'
p35
I12523
sS'parent1_id'
p36
I12373
sS'_node_genes'
p37
(lp38
g1
(g30
g3
NtRp39
(dp40
S'_bias'
p41
I0
sS'_type'
p42
S'INPUT'
p43
sg35
I1
sS'_response'
p44
F4.9242730000000003
sS'_activation_type'
p45
Nsbag1
(g30
g3
NtRp46
(dp47
g41
I0
sg42
g43
sg35
I2
sg44
F4.9242730000000003
sg45
Nsbag1
(g30
g3
NtRp48
(dp49
g41
I0
sg42
g43
sg35
I3
sg44
F4.9242730000000003
sg45
Nsbag1
(g30
g3
NtRp50
(dp51
g41
F-0.05512980688121924
sg42
S'OUTPUT'
p52
sg35
I4
sg44
F0.19776815859095562
sg45
S'tanh'
p53
sbasb.