ccopy_reg
_reconstructor
p1
(cneat.chromosome
Chromosome
p2
c__builtin__
object
p3
NtRp4
(dp5
S'species_id'
p6
I1096
sS'_connection_genes'
p7
(dp8
(I6
I6
tp9
g1
(cneat.genome
ConnectionGene
p10
g3
NtRp11
(dp12
S'_ConnectionGene__weight'
p13
F-15.086812222482585
sS'_ConnectionGene__in'
p14
I6
sS'_ConnectionGene__enabled'
p15
I01
sS'_ConnectionGene__out'
p16
I6
sS'_ConnectionGene__innov_number'
p17
I23
sbs(I5
I6
tp18
g1
(g10
g3
NtRp19
(dp20
g13
F-14.493624022216641
sg14
I5
sg15
I01
sg16
I6
sg17
I11
sbs(I1
I6
tp21
g1
(g10
g3
NtRp22
(dp23
g13
F-16.128158084586968
sg14
I1
sg15
I01
sg16
I6
sg17
I9
sbs(I3
I7
tp24
g1
(g10
g3
NtRp25
(dp26
g13
F4.2599833366605022
sg14
I3
sg15
I01
sg16
I7
sg17
I26
sbs(I2
I5
tp27
g1
(g10
g3
NtRp28
(dp29
g13
F-15.701475140755246
sg14
I2
sg15
I01
sg16
I5
sg17
I7
sbs(I6
I7
tp30
g1
(g10
g3
NtRp31
(dp32
g13
F-2.9208870045769957
sg14
I6
sg15
I01
sg16
I7
sg17
I20
sbs(I5
I5
tp33
g1
(g10
g3
NtRp34
(dp35
g13
F0.94453713329936173
sg14
I5
sg15
I01
sg16
I5
sg17
I16
sbs(I7
I6
tp36
g1
(g10
g3
NtRp37
(dp38
g13
F6.6355470449694245
sg14
I7
sg15
I01
sg16
I6
sg17
I47
sbs(I4
I4
tp39
g1
(g10
g3
NtRp40
(dp41
g13
F-3.7512010464632257
sg14
I4
sg15
I01
sg16
I4
sg17
I4
sbs(I1
I5
tp42
g1
(g10
g3
NtRp43
(dp44
g13
F20.255738806048612
sg14
I1
sg15
I01
sg16
I5
sg17
I5
sbs(I3
I6
tp45
g1
(g10
g3
NtRp46
(dp47
g13
F10.317460353038509
sg14
I3
sg15
I01
sg16
I6
sg17
I19
sbs(I8
I6
tp48
g1
(g10
g3
NtRp49
(dp50
g13
F11.962797611798823
sg14
I8
sg15
I01
sg16
I6
sg17
I28
sbs(I5
I4
tp51
g1
(g10
g3
NtRp52
(dp53
g13
F-2.8095127638948423
sg14
I5
sg15
I01
sg16
I4
sg17
I6
sbs(I2
I6
tp54
g1
(g10
g3
NtRp55
(dp56
g13
F-21.920577519492156
sg14
I2
sg15
I01
sg16
I6
sg17
I13
sbs(I4
I5
tp57
g1
(g10
g3
NtRp58
(dp59
g13
F36.008285194051886
sg14
I4
sg15
I01
sg16
I5
sg17
I17
sbs(I1
I4
tp60
g1
(g10
g3
NtRp61
(dp62
g13
F-5.936552122288715
sg14
I1
sg15
I01
sg16
I4
sg17
I1
sbs(I6
I5
tp63
g1
(g10
g3
NtRp64
(dp65
g13
F2.5807211712842726
sg14
I6
sg15
I01
sg16
I5
sg17
I12
sbs(I3
I5
tp66
g1
(g10
g3
NtRp67
(dp68
g13
F4.7920665985144106
sg14
I3
sg15
I01
sg16
I5
sg17
I8
sbs(I2
I7
tp69
g1
(g10
g3
NtRp70
(dp71
g13
F-3.9034683333958444
sg14
I2
sg15
I01
sg16
I7
sg17
I24
sbs(I3
I8
tp72
g1
(g10
g3
NtRp73
(dp74
g13
F-0.90576193819274808
sg14
I3
sg15
I01
sg16
I8
sg17
I56
sbs(I1
I7
tp75
g1
(g10
g3
NtRp76
(dp77
g13
F2.1511289547419552
sg14
I1
sg15
I01
sg16
I7
sg17
I49
sbs(I3
I4
tp78
g1
(g10
g3
NtRp79
(dp80
g13
F38.16933700934959
sg14
I3
sg15
I01
sg16
I4
sg17
I3
sbs(I2
I4
tp81
g1
(g10
g3
NtRp82
(dp83
g13
F-47.990791704836816
sg14
I2
sg15
I01
sg16
I4
sg17
I2
sbssS'_input_nodes'
p84
I3
sS'_output_nodes'
p85
I1
sS'_node_gene_type'
p86
cneat.genome
NodeGene
p87
sS'_conn_gene_type'
p88
g10
sS'fitness'
p89
I100000
sS'parent2_id'
p90
I39102
sS'score'
p91
I276
sS'_id'
p92
I39252
sS'parent1_id'
p93
I39102
sS'_node_genes'
p94
(lp95
g1
(g87
g3
NtRp96
(dp97
S'_bias'
p98
I0
sS'_type'
p99
S'INPUT'
p100
sg92
I1
sS'_response'
p101
F4.9242730000000003
sS'_activation_type'
p102
Nsbag1
(g87
g3
NtRp103
(dp104
g98
I0
sg99
g100
sg92
I2
sg101
F4.9242730000000003
sg102
Nsbag1
(g87
g3
NtRp105
(dp106
g98
I0
sg99
g100
sg92
I3
sg101
F4.9242730000000003
sg102
Nsbag1
(g87
g3
NtRp107
(dp108
g98
F0.26743298856987852
sg99
S'OUTPUT'
p109
sg92
I4
sg101
F0.47842962499734232
sg102
S'tanh'
p110
sbag1
(g87
g3
NtRp111
(dp112
g98
F-0.19808724245163428
sg99
S'HIDDEN'
p113
sg92
I5
sg101
F5.7341282928853907
sg102
g110
sbag1
(g87
g3
NtRp114
(dp115
g98
F-3.0794947068276226
sg99
g113
sg92
I6
sg101
F2.2438199533217302
sg102
g110
sbag1
(g87
g3
NtRp116
(dp117
g98
F3.7023444925386051
sg99
g113
sg92
I7
sg101
F4.0653121608660907
sg102
g110
sbag1
(g87
g3
NtRp118
(dp119
g98
F1.4656602268095928
sg99
g113
sg92
I8
sg101
F4.4284381982183962
sg102
g110
sbasb.