ccopy_reg
_reconstructor
p1
(cneat.chromosome
Chromosome
p2
c__builtin__
object
p3
NtRp4
(dp5
S'species_id'
p6
I488
sS'_connection_genes'
p7
(dp8
(I5
I4
tp9
g1
(cneat.genome
ConnectionGene
p10
g3
NtRp11
(dp12
S'_ConnectionGene__weight'
p13
F0.069645801810336305
sS'_ConnectionGene__in'
p14
I5
sS'_ConnectionGene__enabled'
p15
I01
sS'_ConnectionGene__out'
p16
I4
sS'_ConnectionGene__innov_number'
p17
I5
sbs(I2
I6
tp18
g1
(g10
g3
NtRp19
(dp20
g13
F-2.1992062666878707
sg14
I2
sg15
I01
sg16
I6
sg17
I18
sbs(I5
I5
tp21
g1
(g10
g3
NtRp22
(dp23
g13
F1.7011854731357541
sg14
I5
sg15
I01
sg16
I5
sg17
I13
sbs(I6
I6
tp24
g1
(g10
g3
NtRp25
(dp26
g13
F-5.8802572787661012
sg14
I6
sg15
I01
sg16
I6
sg17
I23
sbs(I4
I5
tp27
g1
(g10
g3
NtRp28
(dp29
g13
F9.5332537109655728
sg14
I4
sg15
I01
sg16
I5
sg17
I9
sbs(I4
I4
tp30
g1
(g10
g3
NtRp31
(dp32
g13
F-3.3879893708092448
sg14
I4
sg15
I01
sg16
I4
sg17
I6
sbs(I1
I4
tp33
g1
(g10
g3
NtRp34
(dp35
g13
F-3.7777253666405612
sg14
I1
sg15
I01
sg16
I4
sg17
I1
sbs(I1
I5
tp36
g1
(g10
g3
NtRp37
(dp38
g13
F11.219071528771266
sg14
I1
sg15
I01
sg16
I5
sg17
I8
sbs(I1
I6
tp39
g1
(g10
g3
NtRp40
(dp41
g13
F-2.4218399597321638
sg14
I1
sg15
I01
sg16
I6
sg17
I14
sbs(I5
I6
tp42
g1
(g10
g3
NtRp43
(dp44
g13
F-6.6869047497060459
sg14
I5
sg15
I01
sg16
I6
sg17
I10
sbs(I2
I5
tp45
g1
(g10
g3
NtRp46
(dp47
g13
F0.82580583223944481
sg14
I2
sg15
I01
sg16
I5
sg17
I7
sbs(I3
I4
tp48
g1
(g10
g3
NtRp49
(dp50
g13
F32.03237038530353
sg14
I3
sg15
I01
sg16
I4
sg17
I3
sbs(I2
I4
tp51
g1
(g10
g3
NtRp52
(dp53
g13
F-38.614239794571837
sg14
I2
sg15
I01
sg16
I4
sg17
I2
sbs(I6
I5
tp54
g1
(g10
g3
NtRp55
(dp56
g13
F-3.1089774884391561
sg14
I6
sg15
I01
sg16
I5
sg17
I17
sbs(I3
I5
tp57
g1
(g10
g3
NtRp58
(dp59
g13
F-2.4645900283819513
sg14
I3
sg15
I01
sg16
I5
sg17
I4
sbssS'_input_nodes'
p60
I3
sS'_output_nodes'
p61
I1
sS'_node_gene_type'
p62
cneat.genome
NodeGene
p63
sS'_conn_gene_type'
p64
g10
sS'fitness'
p65
I100000
sS'parent2_id'
p66
I14211
sS'score'
p67
I318
sS'_id'
p68
I14495
sS'parent1_id'
p69
I14211
sS'_node_genes'
p70
(lp71
g1
(g63
g3
NtRp72
(dp73
S'_bias'
p74
I0
sS'_type'
p75
S'INPUT'
p76
sg68
I1
sS'_response'
p77
F4.9242730000000003
sS'_activation_type'
p78
Nsbag1
(g63
g3
NtRp79
(dp80
g74
I0
sg75
g76
sg68
I2
sg77
F4.9242730000000003
sg78
Nsbag1
(g63
g3
NtRp81
(dp82
g74
I0
sg75
g76
sg68
I3
sg77
F4.9242730000000003
sg78
Nsbag1
(g63
g3
NtRp83
(dp84
g74
F-0.044795686899978204
sg75
S'OUTPUT'
p85
sg68
I4
sg77
F0.48647416803605109
sg78
S'tanh'
p86
sbag1
(g63
g3
NtRp87
(dp88
g74
F-0.3640404529036137
sg75
S'HIDDEN'
p89
sg68
I5
sg77
F3.3396472890432776
sg78
g86
sbag1
(g63
g3
NtRp90
(dp91
g74
F-0.14546060314775194
sg75
g89
sg68
I6
sg77
F4.7592618114168159
sg78
g86
sbasb.